target datalayout = "e-m:e-p270:32:32-p271:32:32-p272:64:64-i64:64-i128:128-f80:128-n8:16:32:64-S128"
target triple = "x86_64-unknown-linux-gnu"

%"class.icu_75::UObject" = type { ptr }
%"class.icu_75::UnicodeString" = type { %"class.icu_75::Replaceable", %"union.icu_75::UnicodeString::StackBufferOrFields" }
%"class.icu_75::Replaceable" = type { %"class.icu_75::UObject" }
%"union.icu_75::UnicodeString::StackBufferOrFields" = type { %struct.anon.0, [32 x i8] }
%struct.anon.0 = type { i16, i32, i32, ptr }
%"class.icu_75::ConstChar16Ptr" = type { ptr }

@_ZTIN6icu_7510DateFormatE = external constant ptr
@_ZTIN6icu_7516SimpleDateFormatE = external constant ptr

; Function Attrs: mustprogress nounwind uwtable
define internal noundef signext i8 @_ZL9U_SUCCESS10UErrorCode(i32 noundef %code) #0 {
entry:
  %code.addr = alloca i32, align 4
  store i32 %code, ptr %code.addr, align 4
  %0 = load i32, ptr %code.addr, align 4
  %cmp = icmp sle i32 %0, 0
  %conv = zext i1 %cmp to i8
  ret i8 %conv
}

; Function Attrs: mustprogress nounwind uwtable
define internal noundef signext i8 @_ZL9U_FAILURE10UErrorCode(i32 noundef %code) #0 {
entry:
  %code.addr = alloca i32, align 4
  store i32 %code, ptr %code.addr, align 4
  %0 = load i32, ptr %code.addr, align 4
  %cmp = icmp sgt i32 %0, 0
  %conv = zext i1 %cmp to i8
  ret i8 %conv
}

; Function Attrs: mustprogress uwtable
define internal void @_ZL24verifyIsSimpleDateFormatPKPvP10UErrorCode(ptr noundef %fmt, ptr noundef %status) #1 {
entry:
  %fmt.addr = alloca ptr, align 8
  %status.addr = alloca ptr, align 8
  store ptr %fmt, ptr %fmt.addr, align 8
  store ptr %status, ptr %status.addr, align 8
  %0 = load ptr, ptr %status.addr, align 8
  %1 = load i32, ptr %0, align 4
  %call = call noundef signext i8 @_ZL9U_SUCCESS10UErrorCode(i32 noundef %1)
  %tobool = icmp ne i8 %call, 0
  br i1 %tobool, label %land.lhs.true, label %if.end

land.lhs.true:                                    ; preds = %entry
  %2 = load ptr, ptr %fmt.addr, align 8
  %3 = icmp eq ptr %2, null
  br i1 %3, label %dynamic_cast.null, label %dynamic_cast.notnull

dynamic_cast.notnull:                             ; preds = %land.lhs.true
  %4 = call ptr @__dynamic_cast(ptr %2, ptr @_ZTIN6icu_7510DateFormatE, ptr @_ZTIN6icu_7516SimpleDateFormatE, i64 0) #6
  br label %dynamic_cast.end

dynamic_cast.null:                                ; preds = %land.lhs.true
  br label %dynamic_cast.end

dynamic_cast.end:                                 ; preds = %dynamic_cast.null, %dynamic_cast.notnull
  %5 = phi ptr [ %4, %dynamic_cast.notnull ], [ null, %dynamic_cast.null ]
  %cmp = icmp eq ptr %5, null
  br i1 %cmp, label %if.then, label %if.end

if.then:                                          ; preds = %dynamic_cast.end
  %6 = load ptr, ptr %status.addr, align 8
  store i32 1, ptr %6, align 4
  br label %if.end

if.end:                                           ; preds = %if.then, %dynamic_cast.end, %entry
  ret void
}

; Function Attrs: mustprogress nounwind uwtable
define linkonce_odr void @_ZN6icu_7514ConstChar16PtrD2Ev(ptr noundef nonnull align 8 dereferenceable(8) %this) unnamed_addr #0 comdat align 2 {
entry:
  %this.addr = alloca ptr, align 8
  store ptr %this, ptr %this.addr, align 8
  %this1 = load ptr, ptr %this.addr, align 8
  %p_ = getelementptr inbounds %"class.icu_75::ConstChar16Ptr", ptr %this1, i32 0, i32 0
  %0 = load ptr, ptr %p_, align 8
  call void asm sideeffect "", "rm,~{memory},~{dirflag},~{fpsr},~{flags}"(ptr %0) #6, !srcloc !4
  ret void
}

; Function Attrs: mustprogress nounwind uwtable
define linkonce_odr void @_ZN6icu_7514ConstChar16PtrC2EPKDs(ptr noundef nonnull align 8 dereferenceable(8) %this, ptr noundef %p) unnamed_addr #0 comdat align 2 {
entry:
  %this.addr = alloca ptr, align 8
  %p.addr = alloca ptr, align 8
  store ptr %this, ptr %this.addr, align 8
  store ptr %p, ptr %p.addr, align 8
  %this1 = load ptr, ptr %this.addr, align 8
  %p_ = getelementptr inbounds %"class.icu_75::ConstChar16Ptr", ptr %this1, i32 0, i32 0
  %0 = load ptr, ptr %p.addr, align 8
  store ptr %0, ptr %p_, align 8
  ret void
}

; Function Attrs: mustprogress uwtable
define void @udat_applyPattern_75(ptr noundef %format, i8 noundef signext %localized, ptr noundef %pattern, i32 noundef %patternLength) #1 personality ptr @__gxx_personality_v0 {
entry:
  %format.addr = alloca ptr, align 8
  %localized.addr = alloca i8, align 1
  %pattern.addr = alloca ptr, align 8
  %patternLength.addr = alloca i32, align 4
  %pat = alloca %"class.icu_75::UnicodeString", align 8
  %agg.tmp = alloca %"class.icu_75::ConstChar16Ptr", align 8
  %exn.slot = alloca ptr, align 8
  %ehselector.slot = alloca i32, align 4
  %status = alloca i32, align 4
  %cleanup.dest.slot = alloca i32, align 4
  store ptr %format, ptr %format.addr, align 8
  store i8 %localized, ptr %localized.addr, align 1
  store ptr %pattern, ptr %pattern.addr, align 8
  store i32 %patternLength, ptr %patternLength.addr, align 4
  %0 = load i32, ptr %patternLength.addr, align 4
  %cmp = icmp eq i32 %0, -1
  %conv = zext i1 %cmp to i8
  %1 = load ptr, ptr %pattern.addr, align 8
  call void @_ZN6icu_7514ConstChar16PtrC2EPKDs(ptr noundef nonnull align 8 dereferenceable(8) %agg.tmp, ptr noundef %1)
  %2 = load i32, ptr %patternLength.addr, align 4
  invoke void @_ZN6icu_7513UnicodeStringC1EaNS_14ConstChar16PtrEi(ptr noundef nonnull align 8 dereferenceable(64) %pat, i8 noundef signext %conv, ptr noundef %agg.tmp, i32 noundef %2)
          to label %invoke.cont unwind label %lpad

invoke.cont:                                      ; preds = %entry
  call void @_ZN6icu_7514ConstChar16PtrD2Ev(ptr noundef nonnull align 8 dereferenceable(8) %agg.tmp) #6
  store i32 0, ptr %status, align 4
  %3 = load ptr, ptr %format.addr, align 8
  invoke void @_ZL24verifyIsSimpleDateFormatPKPvP10UErrorCode(ptr noundef %3, ptr noundef %status)
          to label %invoke.cont2 unwind label %lpad1

invoke.cont2:                                     ; preds = %invoke.cont
  %4 = load i32, ptr %status, align 4
  %call = invoke noundef signext i8 @_ZL9U_FAILURE10UErrorCode(i32 noundef %4)
          to label %invoke.cont3 unwind label %lpad1

invoke.cont3:                                     ; preds = %invoke.cont2
  %tobool = icmp ne i8 %call, 0
  br i1 %tobool, label %if.then, label %if.end

if.then:                                          ; preds = %invoke.cont3
  store i32 1, ptr %cleanup.dest.slot, align 4
  br label %cleanup

lpad:                                             ; preds = %entry
  %5 = landingpad { ptr, i32 }
          cleanup
  %6 = extractvalue { ptr, i32 } %5, 0
  store ptr %6, ptr %exn.slot, align 8
  %7 = extractvalue { ptr, i32 } %5, 1
  store i32 %7, ptr %ehselector.slot, align 4
  call void @_ZN6icu_7514ConstChar16PtrD2Ev(ptr noundef nonnull align 8 dereferenceable(8) %agg.tmp) #6
  br label %eh.resume

lpad1:                                            ; preds = %if.else, %if.then5, %invoke.cont2, %invoke.cont
  %8 = landingpad { ptr, i32 }
          cleanup
  %9 = extractvalue { ptr, i32 } %8, 0
  store ptr %9, ptr %exn.slot, align 8
  %10 = extractvalue { ptr, i32 } %8, 1
  store i32 %10, ptr %ehselector.slot, align 4
  call void @_ZN6icu_7513UnicodeStringD1Ev(ptr noundef nonnull align 8 dereferenceable(64) %pat) #6
  br label %eh.resume

if.end:                                           ; preds = %invoke.cont3
  %11 = load i8, ptr %localized.addr, align 1
  %tobool4 = icmp ne i8 %11, 0
  br i1 %tobool4, label %if.then5, label %if.else

if.then5:                                         ; preds = %if.end
  %12 = load ptr, ptr %format.addr, align 8
  %vtable = load ptr, ptr %12, align 8
  %vfn = getelementptr inbounds ptr, ptr %vtable, i64 33
  %13 = load ptr, ptr %vfn, align 8
  invoke void %13(ptr noundef nonnull align 8 dereferenceable(832) %12, ptr noundef nonnull align 8 dereferenceable(64) %pat, ptr noundef nonnull align 4 dereferenceable(4) %status)
          to label %invoke.cont6 unwind label %lpad1

invoke.cont6:                                     ; preds = %if.then5
  br label %if.end10

if.else:                                          ; preds = %if.end
  %14 = load ptr, ptr %format.addr, align 8
  %vtable7 = load ptr, ptr %14, align 8
  %vfn8 = getelementptr inbounds ptr, ptr %vtable7, i64 32
  %15 = load ptr, ptr %vfn8, align 8
  invoke void %15(ptr noundef nonnull align 8 dereferenceable(832) %14, ptr noundef nonnull align 8 dereferenceable(64) %pat)
          to label %invoke.cont9 unwind label %lpad1

invoke.cont9:                                     ; preds = %if.else
  br label %if.end10

if.end10:                                         ; preds = %invoke.cont9, %invoke.cont6
  store i32 0, ptr %cleanup.dest.slot, align 4
  br label %cleanup

cleanup:                                          ; preds = %if.end10, %if.then
  call void @_ZN6icu_7513UnicodeStringD1Ev(ptr noundef nonnull align 8 dereferenceable(64) %pat) #6
  %cleanup.dest = load i32, ptr %cleanup.dest.slot, align 4
  switch i32 %cleanup.dest, label %unreachable [
    i32 0, label %cleanup.cont
    i32 1, label %cleanup.cont
  ]

cleanup.cont:                                     ; preds = %cleanup, %cleanup
  ret void

eh.resume:                                        ; preds = %lpad1, %lpad
  %exn = load ptr, ptr %exn.slot, align 8
  %sel = load i32, ptr %ehselector.slot, align 4
  %lpad.val = insertvalue { ptr, i32 } poison, ptr %exn, 0
  %lpad.val11 = insertvalue { ptr, i32 } %lpad.val, i32 %sel, 1
  resume { ptr, i32 } %lpad.val11

unreachable:                                      ; preds = %cleanup
  unreachable
}