; Function Attrs: mustprogress uwtable
define void @udat_applyPattern_75(ptr noundef %format, i8 noundef signext %localized, ptr noundef %pattern, i32 noundef %patternLength) local_unnamed_addr #1 personality ptr @__gxx_personality_v0 {
entry:
  %pat = alloca %"class.icu_75::UnicodeString", align 8
  %agg.tmp = alloca %"class.icu_75::ConstChar16Ptr", align 8
  %status = alloca i32, align 4
  %cmp = icmp eq i32 %patternLength, -1
  %conv = zext i1 %cmp to i8
  store ptr %pattern, ptr %agg.tmp, align 8
  invoke void @_ZN6icu_7513UnicodeStringC1EaNS_14ConstChar16PtrEi(ptr noundef nonnull align 8 dereferenceable(64) %pat, i8 noundef signext %conv, ptr noundef nonnull %agg.tmp, i32 noundef %patternLength)
          to label %land.lhs.true.i unwind label %lpad

land.lhs.true.i:                                  ; preds = %entry
  %0 = load ptr, ptr %agg.tmp, align 8
  call void asm sideeffect "", "rm,~{memory},~{dirflag},~{fpsr},~{flags}"(ptr %0) #7, !srcloc !4
  store i32 0, ptr %status, align 4
  %1 = icmp eq ptr %format, null
  br i1 %1, label %invoke.cont2, label %dynamic_cast.notnull.i

dynamic_cast.notnull.i:                           ; preds = %land.lhs.true.i
  %2 = call ptr @__dynamic_cast(ptr nonnull %format, ptr nonnull @_ZTIN6icu_7510DateFormatE, ptr nonnull @_ZTIN6icu_7516SimpleDateFormatE, i64 0) #7
  %3 = icmp eq ptr %2, null
  br i1 %3, label %invoke.cont2, label %if.end

invoke.cont2:                                     ; preds = %land.lhs.true.i, %dynamic_cast.notnull.i
  store i32 1, ptr %status, align 4
  br label %cleanup

lpad:                                             ; preds = %entry
  %4 = landingpad { ptr, i32 }
          cleanup
  %5 = load ptr, ptr %agg.tmp, align 8
  call void asm sideeffect "", "rm,~{memory},~{dirflag},~{fpsr},~{flags}"(ptr %5) #7, !srcloc !4
  br label %eh.resume

lpad1:                                            ; preds = %if.else, %if.then5
  %6 = landingpad { ptr, i32 }
          cleanup
  call void @_ZN6icu_7513UnicodeStringD1Ev(ptr noundef nonnull align 8 dereferenceable(64) %pat) #7
  br label %eh.resume

if.end:                                           ; preds = %dynamic_cast.notnull.i
  %tobool4.not = icmp eq i8 %localized, 0
  %vtable7 = load ptr, ptr %format, align 8
  br i1 %tobool4.not, label %if.else, label %if.then5

if.then5:                                         ; preds = %if.end
  %vfn = getelementptr inbounds i8, ptr %vtable7, i64 264
  %7 = load ptr, ptr %vfn, align 8
  invoke void %7(ptr noundef nonnull align 8 dereferenceable(832) %format, ptr noundef nonnull align 8 dereferenceable(64) %pat, ptr noundef nonnull align 4 dereferenceable(4) %status)
          to label %cleanup unwind label %lpad1

if.else:                                          ; preds = %if.end
  %vfn8 = getelementptr inbounds i8, ptr %vtable7, i64 256
  %8 = load ptr, ptr %vfn8, align 8
  invoke void %8(ptr noundef nonnull align 8 dereferenceable(832) %format, ptr noundef nonnull align 8 dereferenceable(64) %pat)
          to label %cleanup unwind label %lpad1

cleanup:                                          ; preds = %invoke.cont2, %if.then5, %if.else
  call void @_ZN6icu_7513UnicodeStringD1Ev(ptr noundef nonnull align 8 dereferenceable(64) %pat) #7
  ret void

eh.resume:                                        ; preds = %lpad1, %lpad
  %.pn = phi { ptr, i32 } [ %6, %lpad1 ], [ %4, %lpad ]
  resume { ptr, i32 } %.pn
}